; ModuleID = '28/1127.c'
source_filename = "28/1127.c"
target datalayout = "e-m:e-p270:32:32-p271:32:32-p272:64:64-i64:64-f80:128-n8:16:32:64-S128"
target triple = "x86_64-pc-linux-gnu"

@.str = private unnamed_addr constant [3 x i8] c"%s\00", align 1
@.str.1 = private unnamed_addr constant [3 x i8] c"%c\00", align 1
@.str.2 = private unnamed_addr constant [3 x i8] c"%d\00", align 1
@.str.3 = private unnamed_addr constant [4 x i8] c",%d\00", align 1

; Function Attrs: noinline nounwind uwtable
define dso_local i32 @main() #0 {
  %1 = alloca i32, align 4
  %2 = alloca [300 x [50 x i8]], align 16
  %3 = alloca i8, align 1
  %4 = alloca i32, align 4
  %5 = alloca i32, align 4
  %6 = alloca i32, align 4
  store i32 0, i32* %1, align 4
  %7 = bitcast [300 x [50 x i8]]* %2 to i8*
  call void @llvm.memset.p0i8.i64(i8* align 16 %7, i8 0, i64 15000, i1 false)
  %8 = bitcast i8* %7 to <{ <{ i8, [49 x i8] }>, [299 x <{ i8, [49 x i8] }>] }>*
  %9 = getelementptr inbounds <{ <{ i8, [49 x i8] }>, [299 x <{ i8, [49 x i8] }>] }>, <{ <{ i8, [49 x i8] }>, [299 x <{ i8, [49 x i8] }>] }>* %8, i32 0, i32 0
  %10 = getelementptr inbounds <{ i8, [49 x i8] }>, <{ i8, [49 x i8] }>* %9, i32 0, i32 0
  store i8 48, i8* %10, align 16
  store i32 0, i32* %4, align 4
  store i32 0, i32* %5, align 4
  store i32 0, i32* %6, align 4
  br label %11

11:                                               ; preds = %23, %0
  %12 = load i32, i32* %6, align 4
  %13 = sext i32 %12 to i64
  %14 = getelementptr inbounds [300 x [50 x i8]], [300 x [50 x i8]]* %2, i64 0, i64 %13
  %15 = getelementptr inbounds [50 x i8], [50 x i8]* %14, i64 0, i64 0
  %16 = call i32 (i8*, ...) @__isoc99_scanf(i8* getelementptr inbounds ([3 x i8], [3 x i8]* @.str, i64 0, i64 0), i8* %15)
  %17 = call i32 (i8*, ...) @__isoc99_scanf(i8* getelementptr inbounds ([3 x i8], [3 x i8]* @.str.1, i64 0, i64 0), i8* %3)
  %18 = load i8, i8* %3, align 1
  %19 = sext i8 %18 to i32
  %20 = icmp eq i32 %19, 10
  br i1 %20, label %21, label %22

21:                                               ; preds = %11
  br label %26

22:                                               ; preds = %11
  br label %23

23:                                               ; preds = %22
  %24 = load i32, i32* %6, align 4
  %25 = add nsw i32 %24, 1
  store i32 %25, i32* %6, align 4
  br label %11

26:                                               ; preds = %21
  %27 = getelementptr inbounds [300 x [50 x i8]], [300 x [50 x i8]]* %2, i64 0, i64 0
  %28 = getelementptr inbounds [50 x i8], [50 x i8]* %27, i64 0, i64 0
  %29 = call i64 @strlen(i8* %28) #4
  %30 = call i32 (i8*, ...) @printf(i8* getelementptr inbounds ([3 x i8], [3 x i8]* @.str.2, i64 0, i64 0), i64 %29)
  store i32 1, i32* %6, align 4
  br label %31

31:                                               ; preds = %50, %26
  %32 = load i32, i32* %6, align 4
  %33 = icmp slt i32 %32, 300
  br i1 %33, label %34, label %53

34:                                               ; preds = %31
  %35 = load i32, i32* %6, align 4
  %36 = sext i32 %35 to i64
  %37 = getelementptr inbounds [300 x [50 x i8]], [300 x [50 x i8]]* %2, i64 0, i64 %36
  %38 = getelementptr inbounds [50 x i8], [50 x i8]* %37, i64 0, i64 0
  %39 = call i64 @strlen(i8* %38) #4
  %40 = icmp ne i64 %39, 0
  br i1 %40, label %41, label %48

41:                                               ; preds = %34
  %42 = load i32, i32* %6, align 4
  %43 = sext i32 %42 to i64
  %44 = getelementptr inbounds [300 x [50 x i8]], [300 x [50 x i8]]* %2, i64 0, i64 %43
  %45 = getelementptr inbounds [50 x i8], [50 x i8]* %44, i64 0, i64 0
  %46 = call i64 @strlen(i8* %45) #4
  %47 = call i32 (i8*, ...) @printf(i8* getelementptr inbounds ([4 x i8], [4 x i8]* @.str.3, i64 0, i64 0), i64 %46)
  br label %49

48:                                               ; preds = %34
  br label %53

49:                                               ; preds = %41
  br label %50

50:                                               ; preds = %49
  %51 = load i32, i32* %6, align 4
  %52 = add nsw i32 %51, 1
  store i32 %52, i32* %6, align 4
  br label %31

53:                                               ; preds = %48, %31
  ret i32 0
}

; Function Attrs: argmemonly nounwind willreturn
declare void @llvm.memset.p0i8.i64(i8* nocapture writeonly, i8, i64, i1 immarg) #1

declare dso_local i32 @__isoc99_scanf(i8*, ...) #2

declare dso_local i32 @printf(i8*, ...) #2

; Function Attrs: nounwind readonly
declare dso_local i64 @strlen(i8*) #3


!llvm.module.flags = !{!0}
!llvm.ident = !{!1}

!0 = !{i32 1, !"wchar_size", i32 4}
!1 = !{!"clang version 10.0.0-4ubuntu1 "}
